; Function Attrs: nounwind uwtable
define internal i32 @IDAAspilsPrecSolveBS(double noundef %0, ptr noundef %1, ptr noundef %2, ptr noundef %3, ptr noundef %4, ptr noundef %5, double noundef %6, double noundef %7, ptr noundef %8, ptr noundef %9) #0 {
  %11 = getelementptr inbounds nuw i8, ptr %8, i64 1816
  %12 = load ptr, ptr %11, align 8, !tbaa !55
  %13 = getelementptr inbounds nuw i8, ptr %12, i64 48
  %14 = load ptr, ptr %13, align 8, !tbaa !71
  %15 = getelementptr inbounds nuw i8, ptr %14, i64 72
  %16 = load ptr, ptr %15, align 8, !tbaa !67
  %17 = getelementptr inbounds nuw i8, ptr %12, i64 168
  %18 = load i32, ptr %17, align 8, !tbaa !72
  %19 = icmp eq i32 %18, 0
  br i1 %19, label %20, label %41

20:                                               ; preds = %10
  %21 = getelementptr inbounds nuw i8, ptr %12, i64 164
  %22 = load i32, ptr %21, align 4, !tbaa !79
  %.not = icmp eq i32 %22, 0
  %23 = getelementptr inbounds nuw i8, ptr %12, i64 128
  %24 = load ptr, ptr %23, align 8, !tbaa !73
  %25 = getelementptr inbounds nuw i8, ptr %12, i64 320
  %26 = load ptr, ptr %25, align 8, !tbaa !74
  %27 = getelementptr inbounds nuw i8, ptr %12, i64 328
  %28 = load ptr, ptr %27, align 8, !tbaa !75
  br i1 %.not, label %35, label %29

29:                                               ; preds = %20
  %30 = getelementptr inbounds nuw i8, ptr %12, i64 336
  %31 = load ptr, ptr %30, align 8, !tbaa !80
  %32 = getelementptr inbounds nuw i8, ptr %12, i64 344
  %33 = load ptr, ptr %32, align 8, !tbaa !81
  %34 = tail call i32 %24(ptr noundef nonnull %8, double noundef %0, ptr noundef %26, ptr noundef %28, ptr noundef %31, ptr noundef %33) #5
  br label %37

35:                                               ; preds = %20
  %36 = tail call i32 %24(ptr noundef nonnull %8, double noundef %0, ptr noundef %26, ptr noundef %28, ptr noundef null, ptr noundef null) #5
  br label %37

37:                                               ; preds = %35, %29
  %.0 = phi i32 [ %34, %29 ], [ %36, %35 ]
  %.not37 = icmp eq i32 %.0, 0
  br i1 %.not37, label %41, label %38

38:                                               ; preds = %37
  %39 = getelementptr inbounds nuw i8, ptr %14, i64 16
  %40 = load ptr, ptr %39, align 8, !tbaa !66
  tail call void (ptr, i32, ptr, ptr, ptr, ...) @IDAProcessError(ptr noundef %40, i32 noundef -1, ptr noundef nonnull @.str, ptr noundef nonnull @.str.46, ptr noundef nonnull @.str.43) #5
  br label %55

41:                                               ; preds = %37, %10
  %42 = getelementptr inbounds nuw i8, ptr %16, i64 40
  %43 = load ptr, ptr %42, align 8, !tbaa !78
  %44 = getelementptr inbounds nuw i8, ptr %12, i64 320
  %45 = load ptr, ptr %44, align 8, !tbaa !74
  %46 = getelementptr inbounds nuw i8, ptr %12, i64 328
  %47 = load ptr, ptr %46, align 8, !tbaa !75
  %48 = getelementptr inbounds nuw i8, ptr %12, i64 336
  %49 = load ptr, ptr %48, align 8, !tbaa !80
  %50 = getelementptr inbounds nuw i8, ptr %12, i64 344
  %51 = load ptr, ptr %50, align 8, !tbaa !81
  %52 = getelementptr inbounds nuw i8, ptr %14, i64 64
  %53 = load ptr, ptr %52, align 8, !tbaa !76
  %54 = tail call i32 %43(double noundef %0, ptr noundef %45, ptr noundef %47, ptr noundef %49, ptr noundef %51, ptr noundef %1, ptr noundef %2, ptr noundef %3, ptr noundef %4, ptr noundef %5, double noundef %6, double noundef %7, ptr noundef %53, ptr noundef %9) #5
  br label %55

55:                                               ; preds = %41, %38
  %.036 = phi i32 [ -1, %38 ], [ %54, %41 ]
  ret i32 %.036
}